; ModuleID = '23/892.c'
source_filename = "23/892.c"
target datalayout = "e-m:e-p270:32:32-p271:32:32-p272:64:64-i64:64-f80:128-n8:16:32:64-S128"
target triple = "x86_64-pc-linux-gnu"

@.str = private unnamed_addr constant [3 x i8] c"%s\00", align 1
@.str.1 = private unnamed_addr constant [4 x i8] c" %s\00", align 1

; Function Attrs: noinline nounwind uwtable
define dso_local void @main() #0 {
  %1 = alloca [100 x i8*], align 16
  %2 = alloca i32, align 4
  %3 = alloca i32, align 4
  store i32 0, i32* %2, align 4
  br label %4

4:                                                ; preds = %13, %0
  %5 = load i32, i32* %2, align 4
  %6 = icmp slt i32 %5, 100
  br i1 %6, label %7, label %16

7:                                                ; preds = %4
  %8 = call noalias i8* @malloc(i64 100) #3
  %9 = getelementptr inbounds [100 x i8*], [100 x i8*]* %1, i64 0, i64 0
  %10 = load i32, i32* %2, align 4
  %11 = sext i32 %10 to i64
  %12 = getelementptr inbounds i8*, i8** %9, i64 %11
  store i8* %8, i8** %12, align 8
  br label %13

13:                                               ; preds = %7
  %14 = load i32, i32* %2, align 4
  %15 = add nsw i32 %14, 1
  store i32 %15, i32* %2, align 4
  br label %4

16:                                               ; preds = %4
  store i32 0, i32* %2, align 4
  br label %17

17:                                               ; preds = %25, %16
  %18 = getelementptr inbounds [100 x i8*], [100 x i8*]* %1, i64 0, i64 0
  %19 = load i32, i32* %2, align 4
  %20 = sext i32 %19 to i64
  %21 = getelementptr inbounds i8*, i8** %18, i64 %20
  %22 = load i8*, i8** %21, align 8
  %23 = call i32 (i8*, ...) @__isoc99_scanf(i8* getelementptr inbounds ([3 x i8], [3 x i8]* @.str, i64 0, i64 0), i8* %22)
  %24 = icmp ne i32 %23, -1
  br i1 %24, label %25, label %28

25:                                               ; preds = %17
  %26 = load i32, i32* %2, align 4
  %27 = add nsw i32 %26, 1
  store i32 %27, i32* %2, align 4
  br label %17

28:                                               ; preds = %17
  store i32 0, i32* %3, align 4
  %29 = getelementptr inbounds [100 x i8*], [100 x i8*]* %1, i64 0, i64 0
  %30 = load i32, i32* %2, align 4
  %31 = sext i32 %30 to i64
  %32 = getelementptr inbounds i8*, i8** %29, i64 %31
  %33 = getelementptr inbounds i8*, i8** %32, i64 -1
  %34 = load i8*, i8** %33, align 8
  %35 = call i32 (i8*, ...) @printf(i8* getelementptr inbounds ([3 x i8], [3 x i8]* @.str, i64 0, i64 0), i8* %34)
  %36 = load i32, i32* %2, align 4
  %37 = sub nsw i32 %36, 2
  store i32 %37, i32* %3, align 4
  br label %38

38:                                               ; preds = %48, %28
  %39 = load i32, i32* %3, align 4
  %40 = icmp sge i32 %39, 0
  br i1 %40, label %41, label %51

41:                                               ; preds = %38
  %42 = getelementptr inbounds [100 x i8*], [100 x i8*]* %1, i64 0, i64 0
  %43 = load i32, i32* %3, align 4
  %44 = sext i32 %43 to i64
  %45 = getelementptr inbounds i8*, i8** %42, i64 %44
  %46 = load i8*, i8** %45, align 8
  %47 = call i32 (i8*, ...) @printf(i8* getelementptr inbounds ([4 x i8], [4 x i8]* @.str.1, i64 0, i64 0), i8* %46)
  br label %48

48:                                               ; preds = %41
  %49 = load i32, i32* %3, align 4
  %50 = add nsw i32 %49, -1
  store i32 %50, i32* %3, align 4
  br label %38

51:                                               ; preds = %38
  ret void
}

; Function Attrs: nounwind
declare dso_local noalias i8* @malloc(i64) #1

declare dso_local i32 @__isoc99_scanf(i8*, ...) #2

declare dso_local i32 @printf(i8*, ...) #2


!llvm.module.flags = !{!0}
!llvm.ident = !{!1}

!0 = !{i32 1, !"wchar_size", i32 4}
!1 = !{!"clang version 10.0.0-4ubuntu1 "}
